target datalayout = "e-m:e-p270:32:32-p271:32:32-p272:64:64-i64:64-i128:128-f80:128-n8:16:32:64-S128"
target triple = "x86_64-pc-linux-gnu"

@.str.1986 = private unnamed_addr constant [24 x i8] c"%x (NVM IO Command Set)\00", align 1
@.str.1987 = private unnamed_addr constant [28 x i8] c"%x (Admin Command Set Only)\00", align 1
@.str.1988 = private unnamed_addr constant [14 x i8] c"%x (Reserved)\00", align 1

; Function Attrs: null_pointer_is_valid sspstrong uwtable
define internal void @add_ccap_css(ptr noundef %0, i32 noundef %1) #0 {
  %3 = alloca ptr, align 8
  %4 = alloca i32, align 4
  store ptr %0, ptr %3, align 8
  store i32 %1, ptr %4, align 4
  %5 = load i32, ptr %4, align 4
  %6 = and i32 %5, 1
  %7 = icmp ne i32 %6, 0
  br i1 %7, label %8, label %14

8:                                                ; preds = %2
  %9 = load ptr, ptr %3, align 8
  %10 = load ptr, ptr %3, align 8
  %11 = call i64 @llvm.objectsize.i64.p0(ptr %10, i1 false, i1 true, i1 true)
  %12 = load i32, ptr %4, align 4
  %13 = call i32 (ptr, i64, i32, i64, ptr, ...) @__snprintf_chk(ptr noundef %9, i64 noundef 240, i32 noundef 2, i64 noundef %11, ptr noundef @.str.1986, i32 noundef %12)
  br label %31

14:                                               ; preds = %2
  %15 = load i32, ptr %4, align 4
  %16 = and i32 %15, 128
  %17 = icmp ne i32 %16, 0
  br i1 %17, label %18, label %24

18:                                               ; preds = %14
  %19 = load ptr, ptr %3, align 8
  %20 = load ptr, ptr %3, align 8
  %21 = call i64 @llvm.objectsize.i64.p0(ptr %20, i1 false, i1 true, i1 true)
  %22 = load i32, ptr %4, align 4
  %23 = call i32 (ptr, i64, i32, i64, ptr, ...) @__snprintf_chk(ptr noundef %19, i64 noundef 240, i32 noundef 2, i64 noundef %21, ptr noundef @.str.1987, i32 noundef %22)
  br label %30

24:                                               ; preds = %14
  %25 = load ptr, ptr %3, align 8
  %26 = load ptr, ptr %3, align 8
  %27 = call i64 @llvm.objectsize.i64.p0(ptr %26, i1 false, i1 true, i1 true)
  %28 = load i32, ptr %4, align 4
  %29 = call i32 (ptr, i64, i32, i64, ptr, ...) @__snprintf_chk(ptr noundef %25, i64 noundef 240, i32 noundef 2, i64 noundef %27, ptr noundef @.str.1988, i32 noundef %28)
  br label %30

30:                                               ; preds = %24, %18
  br label %31

31:                                               ; preds = %30, %8
  ret void
}