; Function Attrs: nofree null_pointer_is_valid sspstrong uwtable
define internal void @add_ccap_css(ptr noundef %0, i32 noundef %1) #6 {
  %3 = and i32 %1, 1
  %.not = icmp eq i32 %3, 0
  %4 = and i32 %1, 128
  %.not10 = icmp eq i32 %4, 0
  %.str.1988..str.1987 = select i1 %.not10, ptr @.str.1988, ptr @.str.1987
  %.str.1987.sink = select i1 %.not, ptr %.str.1988..str.1987, ptr @.str.1986
  %5 = tail call i32 (ptr, i64, i32, i64, ptr, ...) @__snprintf_chk(ptr noundef %0, i64 noundef 240, i32 noundef 2, i64 noundef -1, ptr noundef nonnull %.str.1987.sink, i32 noundef %1)
  ret void
}